target datalayout = "e-m:e-p270:32:32-p271:32:32-p272:64:64-i64:64-i128:128-f80:128-n8:16:32:64-S128"
target triple = "x86_64-pc-linux-gnu"

@hf_isis_lsp_srlg_system_id = internal global i32 0, align 4
@hf_isis_lsp_srlg_pseudo_num = internal global i32 0, align 4
@hf_isis_lsp_srlg_flags_numbered = internal global i32 0, align 4
@hf_isis_lsp_srlg_ipv4_local = internal global i32 0, align 4
@hf_isis_lsp_srlg_ipv4_remote = internal global i32 0, align 4
@hf_isis_lsp_srlg_value = internal global i32 0, align 4

; Function Attrs: null_pointer_is_valid sspstrong uwtable
define internal void @dissect_lsp_srlg_clv(ptr noundef %0, ptr noundef %1, ptr noundef %2, i32 noundef %3, ptr noundef %4, i32 noundef %5) #0 {
  %7 = alloca ptr, align 8
  %8 = alloca ptr, align 8
  %9 = alloca ptr, align 8
  %10 = alloca i32, align 4
  %11 = alloca ptr, align 8
  %12 = alloca i32, align 4
  store ptr %0, ptr %7, align 8
  store ptr %1, ptr %8, align 8
  store ptr %2, ptr %9, align 8
  store i32 %3, ptr %10, align 4
  store ptr %4, ptr %11, align 8
  store i32 %5, ptr %12, align 4
  %13 = load ptr, ptr %9, align 8
  %14 = load i32, ptr @hf_isis_lsp_srlg_system_id, align 4
  %15 = load ptr, ptr %7, align 8
  %16 = load i32, ptr %10, align 4
  %17 = call ptr @proto_tree_add_item(ptr noundef %13, i32 noundef %14, ptr noundef %15, i32 noundef %16, i32 noundef 6, i32 noundef 0)
  %18 = load i32, ptr %10, align 4
  %19 = add i32 %18, 6
  store i32 %19, ptr %10, align 4
  %20 = load ptr, ptr %9, align 8
  %21 = load i32, ptr @hf_isis_lsp_srlg_pseudo_num, align 4
  %22 = load ptr, ptr %7, align 8
  %23 = load i32, ptr %10, align 4
  %24 = call ptr @proto_tree_add_item(ptr noundef %20, i32 noundef %21, ptr noundef %22, i32 noundef %23, i32 noundef 1, i32 noundef 0)
  %25 = load i32, ptr %10, align 4
  %26 = add i32 %25, 1
  store i32 %26, ptr %10, align 4
  %27 = load ptr, ptr %9, align 8
  %28 = load i32, ptr @hf_isis_lsp_srlg_flags_numbered, align 4
  %29 = load ptr, ptr %7, align 8
  %30 = load i32, ptr %10, align 4
  %31 = call ptr @proto_tree_add_item(ptr noundef %27, i32 noundef %28, ptr noundef %29, i32 noundef %30, i32 noundef 1, i32 noundef 0)
  %32 = load i32, ptr %10, align 4
  %33 = add i32 %32, 1
  store i32 %33, ptr %10, align 4
  %34 = load ptr, ptr %9, align 8
  %35 = load i32, ptr @hf_isis_lsp_srlg_ipv4_local, align 4
  %36 = load ptr, ptr %7, align 8
  %37 = load i32, ptr %10, align 4
  %38 = call ptr @proto_tree_add_item(ptr noundef %34, i32 noundef %35, ptr noundef %36, i32 noundef %37, i32 noundef 4, i32 noundef 0)
  %39 = load i32, ptr %10, align 4
  %40 = add i32 %39, 4
  store i32 %40, ptr %10, align 4
  %41 = load ptr, ptr %9, align 8
  %42 = load i32, ptr @hf_isis_lsp_srlg_ipv4_remote, align 4
  %43 = load ptr, ptr %7, align 8
  %44 = load i32, ptr %10, align 4
  %45 = call ptr @proto_tree_add_item(ptr noundef %41, i32 noundef %42, ptr noundef %43, i32 noundef %44, i32 noundef 4, i32 noundef 0)
  %46 = load i32, ptr %10, align 4
  %47 = add i32 %46, 4
  store i32 %47, ptr %10, align 4
  %48 = load i32, ptr %12, align 4
  %49 = sub i32 %48, 16
  store i32 %49, ptr %12, align 4
  br label %50

50:                                               ; preds = %53, %6
  %51 = load i32, ptr %12, align 4
  %52 = icmp ne i32 %51, 0
  br i1 %52, label %53, label %63

53:                                               ; preds = %50
  %54 = load ptr, ptr %9, align 8
  %55 = load i32, ptr @hf_isis_lsp_srlg_value, align 4
  %56 = load ptr, ptr %7, align 8
  %57 = load i32, ptr %10, align 4
  %58 = call ptr @proto_tree_add_item(ptr noundef %54, i32 noundef %55, ptr noundef %56, i32 noundef %57, i32 noundef 4, i32 noundef 0)
  %59 = load i32, ptr %10, align 4
  %60 = add i32 %59, 4
  store i32 %60, ptr %10, align 4
  %61 = load i32, ptr %12, align 4
  %62 = sub i32 %61, 4
  store i32 %62, ptr %12, align 4
  br label %50, !llvm.loop !16

63:                                               ; preds = %50
  ret void
}