; Function Attrs: null_pointer_is_valid sspstrong uwtable
define internal void @dissect_lsp_srlg_clv(ptr noundef %0, ptr readnone captures(none) %1, ptr noundef %2, i32 noundef %3, ptr readnone captures(none) %4, i32 noundef %5) #0 {
  %7 = load i32, ptr @hf_isis_lsp_srlg_system_id, align 4
  %8 = tail call ptr @proto_tree_add_item(ptr noundef %2, i32 noundef %7, ptr noundef %0, i32 noundef %3, i32 noundef 6, i32 noundef 0)
  %9 = add i32 %3, 6
  %10 = load i32, ptr @hf_isis_lsp_srlg_pseudo_num, align 4
  %11 = tail call ptr @proto_tree_add_item(ptr noundef %2, i32 noundef %10, ptr noundef %0, i32 noundef %9, i32 noundef 1, i32 noundef 0)
  %12 = add i32 %3, 7
  %13 = load i32, ptr @hf_isis_lsp_srlg_flags_numbered, align 4
  %14 = tail call ptr @proto_tree_add_item(ptr noundef %2, i32 noundef %13, ptr noundef %0, i32 noundef %12, i32 noundef 1, i32 noundef 0)
  %15 = add i32 %3, 8
  %16 = load i32, ptr @hf_isis_lsp_srlg_ipv4_local, align 4
  %17 = tail call ptr @proto_tree_add_item(ptr noundef %2, i32 noundef %16, ptr noundef %0, i32 noundef %15, i32 noundef 4, i32 noundef 0)
  %18 = add i32 %3, 12
  %19 = load i32, ptr @hf_isis_lsp_srlg_ipv4_remote, align 4
  %20 = tail call ptr @proto_tree_add_item(ptr noundef %2, i32 noundef %19, ptr noundef %0, i32 noundef %18, i32 noundef 4, i32 noundef 0)
  %21 = add i32 %5, -16
  %.not27 = icmp eq i32 %21, 0
  br i1 %.not27, label %._crit_edge, label %.lr.ph.preheader

.lr.ph.preheader:                                 ; preds = %6
  %22 = add i32 %3, 16
  br label %.lr.ph

.lr.ph:                                           ; preds = %.lr.ph.preheader, %.lr.ph
  %.029 = phi i32 [ %26, %.lr.ph ], [ %21, %.lr.ph.preheader ]
  %.02628 = phi i32 [ %25, %.lr.ph ], [ %22, %.lr.ph.preheader ]
  %23 = load i32, ptr @hf_isis_lsp_srlg_value, align 4
  %24 = tail call ptr @proto_tree_add_item(ptr noundef %2, i32 noundef %23, ptr noundef %0, i32 noundef %.02628, i32 noundef 4, i32 noundef 0)
  %25 = add i32 %.02628, 4
  %26 = add i32 %.029, -4
  %.not = icmp eq i32 %26, 0
  br i1 %.not, label %._crit_edge, label %.lr.ph, !llvm.loop !14

._crit_edge:                                      ; preds = %.lr.ph, %6
  ret void
}